target datalayout = "e-m:e-p270:32:32-p271:32:32-p272:64:64-i64:64-i128:128-f80:128-n8:16:32:64-S128"
target triple = "x86_64-pc-linux-gnu"

%struct._object = type { %union.anon, ptr }
%union.anon = type { i64 }
%struct.z_stream_s = type { ptr, i32, i64, ptr, i32, i64, ptr, ptr, ptr, ptr, ptr, i32, i64, i64 }
%struct.anon = type { i32, i32 }
%struct.ZlibDecompressor = type { %struct._object, %struct.z_stream_s, ptr, ptr, ptr, ptr, i64, i64, i8, i8, i8 }

; Function Attrs: alwaysinline nounwind uwtable
define internal i32 @_Py_IsImmortal(ptr noundef %0) #5 {
  %2 = alloca ptr, align 8
  store ptr %0, ptr %2, align 8, !tbaa !3
  %3 = load ptr, ptr %2, align 8, !tbaa !3
  %4 = getelementptr inbounds nuw %struct._object, ptr %3, i32 0, i32 0
  %5 = getelementptr inbounds nuw %struct.anon, ptr %4, i32 0, i32 0
  %6 = load i32, ptr %5, align 8, !tbaa !60
  %7 = icmp slt i32 %6, 0
  %8 = zext i1 %7 to i32
  ret i32 %8
}

; Function Attrs: alwaysinline nounwind uwtable
define internal void @Py_DECREF(ptr noundef %0) #5 {
  %2 = alloca ptr, align 8
  store ptr %0, ptr %2, align 8, !tbaa !3
  %3 = load ptr, ptr %2, align 8, !tbaa !3
  %4 = call i32 @_Py_IsImmortal(ptr noundef %3)
  %5 = icmp ne i32 %4, 0
  br i1 %5, label %6, label %7

6:                                                ; preds = %1
  br label %16

7:                                                ; preds = %1
  %8 = load ptr, ptr %2, align 8, !tbaa !3
  %9 = getelementptr inbounds nuw %struct._object, ptr %8, i32 0, i32 0
  %10 = getelementptr inbounds nuw %struct.anon, ptr %9, i32 0, i32 0
  %11 = load i32, ptr %10, align 8, !tbaa !60
  %12 = add i32 %11, -1
  store i32 %12, ptr %10, align 8, !tbaa !60
  %13 = icmp eq i32 %12, 0
  br i1 %13, label %14, label %16

14:                                               ; preds = %7
  %15 = load ptr, ptr %2, align 8, !tbaa !3
  call void @_Py_Dealloc(ptr noundef %15)
  br label %16

16:                                               ; preds = %6, %14, %7
  ret void
}

; Function Attrs: inlinehint nounwind uwtable
define internal ptr @_Py_TYPE(ptr noundef %0) #4 {
  %2 = alloca ptr, align 8
  store ptr %0, ptr %2, align 8, !tbaa !3
  %3 = load ptr, ptr %2, align 8, !tbaa !3
  %4 = getelementptr inbounds nuw %struct._object, ptr %3, i32 0, i32 1
  %5 = load ptr, ptr %4, align 8, !tbaa !85
  ret ptr %5
}

; Function Attrs: nounwind uwtable
define internal void @ZlibDecompressor_dealloc(ptr noundef %0) #0 {
  %2 = alloca ptr, align 8
  %3 = alloca ptr, align 8
  %4 = alloca ptr, align 8
  %5 = alloca ptr, align 8
  %6 = alloca ptr, align 8
  %7 = alloca ptr, align 8
  store ptr %0, ptr %2, align 8, !tbaa !8
  call void @llvm.lifetime.start.p0(i64 8, ptr %3) #7
  %8 = load ptr, ptr %2, align 8, !tbaa !8
  %9 = call ptr @_Py_TYPE(ptr noundef %8)
  store ptr %9, ptr %3, align 8, !tbaa !3
  %10 = load ptr, ptr %2, align 8, !tbaa !8
  %11 = getelementptr inbounds nuw %struct.ZlibDecompressor, ptr %10, i32 0, i32 3
  %12 = load ptr, ptr %11, align 8, !tbaa !94
  call void @PyThread_free_lock(ptr noundef %12)
  %13 = load ptr, ptr %2, align 8, !tbaa !8
  %14 = getelementptr inbounds nuw %struct.ZlibDecompressor, ptr %13, i32 0, i32 8
  %15 = load i8, ptr %14, align 8, !tbaa !96, !range !83, !noundef !84
  %16 = trunc i8 %15 to i1
  br i1 %16, label %17, label %21

17:                                               ; preds = %1
  %18 = load ptr, ptr %2, align 8, !tbaa !8
  %19 = getelementptr inbounds nuw %struct.ZlibDecompressor, ptr %18, i32 0, i32 1
  %20 = call i32 @inflateEnd(ptr noundef %19)
  br label %21

21:                                               ; preds = %17, %1
  %22 = load ptr, ptr %2, align 8, !tbaa !8
  %23 = getelementptr inbounds nuw %struct.ZlibDecompressor, ptr %22, i32 0, i32 5
  %24 = load ptr, ptr %23, align 8, !tbaa !97
  call void @PyMem_Free(ptr noundef %24)
  br label %25

25:                                               ; preds = %21
  call void @llvm.lifetime.start.p0(i64 8, ptr %4) #7
  %26 = load ptr, ptr %2, align 8, !tbaa !8
  %27 = getelementptr inbounds nuw %struct.ZlibDecompressor, ptr %26, i32 0, i32 4
  store ptr %27, ptr %4, align 8, !tbaa !20
  call void @llvm.lifetime.start.p0(i64 8, ptr %5) #7
  %28 = load ptr, ptr %4, align 8, !tbaa !20
  %29 = load ptr, ptr %28, align 8, !tbaa !3
  store ptr %29, ptr %5, align 8, !tbaa !3
  %30 = load ptr, ptr %5, align 8, !tbaa !3
  %31 = icmp ne ptr %30, null
  br i1 %31, label %32, label %35

32:                                               ; preds = %25
  %33 = load ptr, ptr %4, align 8, !tbaa !20
  store ptr null, ptr %33, align 8, !tbaa !3
  %34 = load ptr, ptr %5, align 8, !tbaa !3
  call void @Py_DECREF(ptr noundef %34)
  br label %35

35:                                               ; preds = %32, %25
  call void @llvm.lifetime.end.p0(i64 8, ptr %5) #7
  call void @llvm.lifetime.end.p0(i64 8, ptr %4) #7
  br label %36

36:                                               ; preds = %35
  br label %37

37:                                               ; preds = %36
  br label %38

38:                                               ; preds = %37
  call void @llvm.lifetime.start.p0(i64 8, ptr %6) #7
  %39 = load ptr, ptr %2, align 8, !tbaa !8
  %40 = getelementptr inbounds nuw %struct.ZlibDecompressor, ptr %39, i32 0, i32 2
  store ptr %40, ptr %6, align 8, !tbaa !20
  call void @llvm.lifetime.start.p0(i64 8, ptr %7) #7
  %41 = load ptr, ptr %6, align 8, !tbaa !20
  %42 = load ptr, ptr %41, align 8, !tbaa !3
  store ptr %42, ptr %7, align 8, !tbaa !3
  %43 = load ptr, ptr %7, align 8, !tbaa !3
  %44 = icmp ne ptr %43, null
  br i1 %44, label %45, label %48

45:                                               ; preds = %38
  %46 = load ptr, ptr %6, align 8, !tbaa !20
  store ptr null, ptr %46, align 8, !tbaa !3
  %47 = load ptr, ptr %7, align 8, !tbaa !3
  call void @Py_DECREF(ptr noundef %47)
  br label %48

48:                                               ; preds = %45, %38
  call void @llvm.lifetime.end.p0(i64 8, ptr %7) #7
  call void @llvm.lifetime.end.p0(i64 8, ptr %6) #7
  br label %49

49:                                               ; preds = %48
  br label %50

50:                                               ; preds = %49
  %51 = load ptr, ptr %2, align 8, !tbaa !8
  call void @PyObject_Free(ptr noundef %51)
  %52 = load ptr, ptr %3, align 8, !tbaa !3
  call void @Py_DECREF(ptr noundef %52)
  call void @llvm.lifetime.end.p0(i64 8, ptr %3) #7
  ret void
}