; Function Attrs: nounwind uwtable
define internal void @ZlibDecompressor_dealloc(ptr noundef %0) #0 {
  %2 = getelementptr i8, ptr %0, i64 8
  %.val = load ptr, ptr %2, align 8, !tbaa !69
  %3 = getelementptr inbounds nuw i8, ptr %0, i64 136
  %4 = load ptr, ptr %3, align 8, !tbaa !78
  tail call void @PyThread_free_lock(ptr noundef %4) #7
  %5 = getelementptr inbounds nuw i8, ptr %0, i64 176
  %6 = load i8, ptr %5, align 8, !tbaa !80, !range !67, !noundef !68
  %7 = trunc nuw i8 %6 to i1
  br i1 %7, label %8, label %11

8:                                                ; preds = %1
  %9 = getelementptr inbounds nuw i8, ptr %0, i64 16
  %10 = tail call i32 @inflateEnd(ptr noundef nonnull %9) #7
  br label %11

11:                                               ; preds = %8, %1
  %12 = getelementptr inbounds nuw i8, ptr %0, i64 152
  %13 = load ptr, ptr %12, align 8, !tbaa !81
  tail call void @PyMem_Free(ptr noundef %13) #7
  %14 = getelementptr inbounds nuw i8, ptr %0, i64 144
  %15 = load ptr, ptr %14, align 8, !tbaa !15
  %.not = icmp eq ptr %15, null
  br i1 %.not, label %Py_DECREF.exit22, label %16

16:                                               ; preds = %11
  store ptr null, ptr %14, align 8, !tbaa !15
  %17 = load i32, ptr %15, align 8, !tbaa !14
  %.not.i21 = icmp sgt i32 %17, -1
  br i1 %.not.i21, label %18, label %Py_DECREF.exit22

18:                                               ; preds = %16
  %19 = add nsw i32 %17, -1
  store i32 %19, ptr %15, align 8, !tbaa !14
  %20 = icmp eq i32 %19, 0
  br i1 %20, label %21, label %Py_DECREF.exit22

21:                                               ; preds = %18
  tail call void @_Py_Dealloc(ptr noundef nonnull %15) #7
  br label %Py_DECREF.exit22

Py_DECREF.exit22:                                 ; preds = %21, %18, %16, %11
  %22 = getelementptr inbounds nuw i8, ptr %0, i64 128
  %23 = load ptr, ptr %22, align 8, !tbaa !15
  %.not18 = icmp eq ptr %23, null
  br i1 %.not18, label %Py_DECREF.exit20, label %24

24:                                               ; preds = %Py_DECREF.exit22
  store ptr null, ptr %22, align 8, !tbaa !15
  %25 = load i32, ptr %23, align 8, !tbaa !14
  %.not.i19 = icmp sgt i32 %25, -1
  br i1 %.not.i19, label %26, label %Py_DECREF.exit20

26:                                               ; preds = %24
  %27 = add nsw i32 %25, -1
  store i32 %27, ptr %23, align 8, !tbaa !14
  %28 = icmp eq i32 %27, 0
  br i1 %28, label %29, label %Py_DECREF.exit20

29:                                               ; preds = %26
  tail call void @_Py_Dealloc(ptr noundef nonnull %23) #7
  br label %Py_DECREF.exit20

Py_DECREF.exit20:                                 ; preds = %29, %26, %24, %Py_DECREF.exit22
  tail call void @PyObject_Free(ptr noundef nonnull %0) #7
  %30 = load i32, ptr %.val, align 8, !tbaa !14
  %.not.i = icmp sgt i32 %30, -1
  br i1 %.not.i, label %31, label %Py_DECREF.exit

31:                                               ; preds = %Py_DECREF.exit20
  %32 = add nsw i32 %30, -1
  store i32 %32, ptr %.val, align 8, !tbaa !14
  %33 = icmp eq i32 %32, 0
  br i1 %33, label %34, label %Py_DECREF.exit

34:                                               ; preds = %31
  tail call void @_Py_Dealloc(ptr noundef nonnull %.val) #7
  br label %Py_DECREF.exit

Py_DECREF.exit:                                   ; preds = %Py_DECREF.exit20, %31, %34
  ret void
}